; Function Attrs: mustprogress uwtable
define noundef ptr @_ZNK21ResolvedAddressesView9dataModelEv(ptr noundef nonnull align 8 dereferenceable(48) %0) local_unnamed_addr #0 align 2 {
  %2 = tail call noundef ptr @_ZNK17QAbstractItemView5modelEv(ptr noundef nonnull align 8 dereferenceable(40) %0)
  %3 = tail call noundef ptr @_ZNK11QMetaObject4castEPK7QObject(ptr noundef nonnull align 8 dereferenceable(56) @_ZN21QSortFilterProxyModel16staticMetaObjectE, ptr noundef %2)
  %.not = icmp eq ptr %3, null
  br i1 %.not, label %11, label %4

4:                                                ; preds = %1
  %5 = tail call noundef ptr @_ZNK19QAbstractProxyModel11sourceModelEv(ptr noundef nonnull align 8 dereferenceable(16) %3)
  %6 = tail call noundef ptr @_ZNK11QMetaObject4castEPK7QObject(ptr noundef nonnull align 8 dereferenceable(56) @_ZN21QSortFilterProxyModel16staticMetaObjectE, ptr noundef %5)
  %.not1011 = icmp eq ptr %6, null
  br i1 %.not1011, label %._crit_edge, label %.lr.ph

.lr.ph:                                           ; preds = %4, %.lr.ph
  %.012 = phi ptr [ %8, %.lr.ph ], [ %5, %4 ]
  %7 = tail call noundef ptr @_ZNK11QMetaObject4castEPK7QObject(ptr noundef nonnull align 8 dereferenceable(56) @_ZN21QSortFilterProxyModel16staticMetaObjectE, ptr noundef %.012)
  %8 = tail call noundef ptr @_ZNK19QAbstractProxyModel11sourceModelEv(ptr noundef nonnull align 8 dereferenceable(16) %7)
  %9 = tail call noundef ptr @_ZNK11QMetaObject4castEPK7QObject(ptr noundef nonnull align 8 dereferenceable(56) @_ZN21QSortFilterProxyModel16staticMetaObjectE, ptr noundef %8)
  %.not10 = icmp eq ptr %9, null
  br i1 %.not10, label %._crit_edge, label %.lr.ph, !llvm.loop !22

._crit_edge:                                      ; preds = %.lr.ph, %4
  %.0.lcssa = phi ptr [ %5, %4 ], [ %8, %.lr.ph ]
  %10 = tail call noundef ptr @_ZNK11QMetaObject4castEPK7QObject(ptr noundef nonnull align 8 dereferenceable(56) @_ZN20AStringListListModel16staticMetaObjectE, ptr noundef %.0.lcssa)
  br label %11

11:                                               ; preds = %1, %._crit_edge
  %.08 = phi ptr [ %10, %._crit_edge ], [ null, %1 ]
  ret ptr %.08
}